target datalayout = "e-m:e-p270:32:32-p271:32:32-p272:64:64-i64:64-i128:128-f80:128-n8:16:32:64-S128"
target triple = "x86_64-pc-linux-gnu"

%"class.std::__cxx11::basic_string" = type { %"struct.std::__cxx11::basic_string<char>::_Alloc_hider", i64, %union.anon }
%"struct.std::__cxx11::basic_string<char>::_Alloc_hider" = type { ptr }
%union.anon = type { i64, [8 x i8] }
%"class.folly::SSLContext" = type { ptr, ptr, i32, i32, i32, i8, %"class.std::__cxx11::basic_string", %"class.std::shared_ptr", %"class.std::function", %"class.std::vector", ptr, %"class.std::unique_ptr", %"class.std::unique_ptr.5", %"class.std::vector.13", %"class.std::vector.18", %"class.std::discrete_distribution", i8, %"class.std::__cxx11::basic_string", %"class.std::unique_ptr.28" }
%"class.std::shared_ptr" = type { %"class.std::__shared_ptr" }
%"class.std::__shared_ptr" = type { ptr, %"class.std::__shared_count" }
%"class.std::__shared_count" = type { ptr }
%"class.std::function" = type { %"class.std::_Function_base", ptr }
%"class.std::_Function_base" = type { %"union.std::_Any_data", ptr }
%"union.std::_Any_data" = type { %"union.std::_Nocopy_types" }
%"union.std::_Nocopy_types" = type { { i64, i64 } }
%"class.std::vector" = type { %"struct.std::_Vector_base" }
%"struct.std::_Vector_base" = type { %"struct.std::_Vector_base<std::function<void (ssl_st *)>, std::allocator<std::function<void (ssl_st *)>>>::_Vector_impl" }
%"struct.std::_Vector_base<std::function<void (ssl_st *)>, std::allocator<std::function<void (ssl_st *)>>>::_Vector_impl" = type { %"struct.std::_Vector_base<std::function<void (ssl_st *)>, std::allocator<std::function<void (ssl_st *)>>>::_Vector_impl_data" }
%"struct.std::_Vector_base<std::function<void (ssl_st *)>, std::allocator<std::function<void (ssl_st *)>>>::_Vector_impl_data" = type { ptr, ptr, ptr }
%"class.std::unique_ptr" = type { %"struct.std::__uniq_ptr_data" }
%"struct.std::__uniq_ptr_data" = type { %"class.std::__uniq_ptr_impl" }
%"class.std::__uniq_ptr_impl" = type { %"class.std::tuple" }
%"class.std::tuple" = type { %"struct.std::_Tuple_impl" }
%"struct.std::_Tuple_impl" = type { %"struct.std::_Head_base.4" }
%"struct.std::_Head_base.4" = type { ptr }
%"class.std::unique_ptr.5" = type { %"struct.std::__uniq_ptr_data.6" }
%"struct.std::__uniq_ptr_data.6" = type { %"class.std::__uniq_ptr_impl.7" }
%"class.std::__uniq_ptr_impl.7" = type { %"class.std::tuple.8" }
%"class.std::tuple.8" = type { %"struct.std::_Tuple_impl.9" }
%"struct.std::_Tuple_impl.9" = type { %"struct.std::_Head_base.12" }
%"struct.std::_Head_base.12" = type { ptr }
%"class.std::vector.13" = type { %"struct.std::_Vector_base.14" }
%"struct.std::_Vector_base.14" = type { %"struct.std::_Vector_base<folly::SSLContext::AdvertisedNextProtocolsItem, std::allocator<folly::SSLContext::AdvertisedNextProtocolsItem>>::_Vector_impl" }
%"struct.std::_Vector_base<folly::SSLContext::AdvertisedNextProtocolsItem, std::allocator<folly::SSLContext::AdvertisedNextProtocolsItem>>::_Vector_impl" = type { %"struct.std::_Vector_base<folly::SSLContext::AdvertisedNextProtocolsItem, std::allocator<folly::SSLContext::AdvertisedNextProtocolsItem>>::_Vector_impl_data" }
%"struct.std::_Vector_base<folly::SSLContext::AdvertisedNextProtocolsItem, std::allocator<folly::SSLContext::AdvertisedNextProtocolsItem>>::_Vector_impl_data" = type { ptr, ptr, ptr }
%"class.std::vector.18" = type { %"struct.std::_Vector_base.19" }
%"struct.std::_Vector_base.19" = type { %"struct.std::_Vector_base<int, std::allocator<int>>::_Vector_impl" }
%"struct.std::_Vector_base<int, std::allocator<int>>::_Vector_impl" = type { %"struct.std::_Vector_base<int, std::allocator<int>>::_Vector_impl_data" }
%"struct.std::_Vector_base<int, std::allocator<int>>::_Vector_impl_data" = type { ptr, ptr, ptr }
%"class.std::discrete_distribution" = type { %"struct.std::discrete_distribution<>::param_type" }
%"struct.std::discrete_distribution<>::param_type" = type { %"class.std::vector.23", %"class.std::vector.23" }
%"class.std::vector.23" = type { %"struct.std::_Vector_base.24" }
%"struct.std::_Vector_base.24" = type { %"struct.std::_Vector_base<double, std::allocator<double>>::_Vector_impl" }
%"struct.std::_Vector_base<double, std::allocator<double>>::_Vector_impl" = type { %"struct.std::_Vector_base<double, std::allocator<double>>::_Vector_impl_data" }
%"struct.std::_Vector_base<double, std::allocator<double>>::_Vector_impl_data" = type { ptr, ptr, ptr }
%"class.std::unique_ptr.28" = type { %"struct.std::__uniq_ptr_data.29" }
%"struct.std::__uniq_ptr_data.29" = type { %"class.std::__uniq_ptr_impl.30" }
%"class.std::__uniq_ptr_impl.30" = type { %"class.std::tuple.31" }
%"class.std::tuple.31" = type { %"struct.std::_Tuple_impl.32" }
%"struct.std::_Tuple_impl.32" = type { %"struct.std::_Head_base.35" }
%"struct.std::_Head_base.35" = type { ptr }
%"class.google::LogMessageVoidify" = type { i8 }
%"class.google::LogMessageFatal" = type { %"class.google::LogMessage" }
%"class.google::LogMessage" = type { ptr, ptr }

@.str.3 = private unnamed_addr constant [119 x i8] c"generated/home/dtcxzyw/WorkSpace/Projects/compilers/llvm-opt-benchmark/bench/folly/folly/folly/io/async/SSLContext.cpp\00", align 1
@_ZZN5folly12_GLOBAL__N_114getExDataIndexEvE5index = internal global i32 0, align 4
@_ZGVZN5folly12_GLOBAL__N_114getExDataIndexEvE5index = internal global i64 0, align 8
@.str.84 = private unnamed_addr constant [19 x i8] c"Check failed: ctx \00", align 1
@.str.85 = private unnamed_addr constant [38 x i8] c"Null OpenSSLTicketHandler in callback\00", align 1

; Function Attrs: mustprogress nounwind uwtable
define linkonce_odr noundef nonnull align 8 dereferenceable(8) ptr @_ZNSt10_Head_baseILm0EPN5folly20OpenSSLTicketHandlerELb0EE7_M_headERKS3_(ptr noundef nonnull align 8 dereferenceable(8) %0) #1 comdat align 2 {
  %2 = alloca ptr, align 8
  store ptr %0, ptr %2, align 8, !tbaa !207
  %3 = load ptr, ptr %2, align 8, !tbaa !207
  %4 = getelementptr inbounds nuw %"struct.std::_Head_base.12", ptr %3, i32 0, i32 0
  ret ptr %4
}

; Function Attrs: mustprogress nounwind uwtable
define linkonce_odr noundef nonnull align 8 dereferenceable(8) ptr @_ZNSt11_Tuple_implILm0EJPN5folly20OpenSSLTicketHandlerESt14default_deleteIS1_EEE7_M_headERKS5_(ptr noundef nonnull align 8 dereferenceable(8) %0) #1 comdat align 2 {
  %2 = alloca ptr, align 8
  store ptr %0, ptr %2, align 8, !tbaa !203
  %3 = load ptr, ptr %2, align 8, !tbaa !203
  %4 = call noundef nonnull align 8 dereferenceable(8) ptr @_ZNSt10_Head_baseILm0EPN5folly20OpenSSLTicketHandlerELb0EE7_M_headERKS3_(ptr noundef nonnull align 8 dereferenceable(8) %3) #26
  ret ptr %4
}

; Function Attrs: mustprogress nounwind uwtable
define linkonce_odr noundef nonnull align 8 dereferenceable(8) ptr @_ZSt12__get_helperILm0EPN5folly20OpenSSLTicketHandlerEJSt14default_deleteIS1_EEERKT0_RKSt11_Tuple_implIXT_EJS5_DpT1_EE(ptr noundef nonnull align 8 dereferenceable(8) %0) #1 comdat {
  %2 = alloca ptr, align 8
  store ptr %0, ptr %2, align 8, !tbaa !203
  %3 = load ptr, ptr %2, align 8, !tbaa !203
  %4 = call noundef nonnull align 8 dereferenceable(8) ptr @_ZNSt11_Tuple_implILm0EJPN5folly20OpenSSLTicketHandlerESt14default_deleteIS1_EEE7_M_headERKS5_(ptr noundef nonnull align 8 dereferenceable(8) %3) #26
  ret ptr %4
}

; Function Attrs: mustprogress nounwind uwtable
define linkonce_odr noundef nonnull align 8 dereferenceable(8) ptr @_ZSt3getILm0EJPN5folly20OpenSSLTicketHandlerESt14default_deleteIS1_EEERKNSt13tuple_elementIXT_ESt5tupleIJDpT0_EEE4typeERKS9_(ptr noundef nonnull align 8 dereferenceable(8) %0) #1 comdat {
  %2 = alloca ptr, align 8
  store ptr %0, ptr %2, align 8, !tbaa !201
  %3 = load ptr, ptr %2, align 8, !tbaa !201
  %4 = call noundef nonnull align 8 dereferenceable(8) ptr @_ZSt12__get_helperILm0EPN5folly20OpenSSLTicketHandlerEJSt14default_deleteIS1_EEERKT0_RKSt11_Tuple_implIXT_EJS5_DpT1_EE(ptr noundef nonnull align 8 dereferenceable(8) %3) #26
  ret ptr %4
}

; Function Attrs: mustprogress nounwind uwtable
define linkonce_odr noundef ptr @_ZNKSt15__uniq_ptr_implIN5folly20OpenSSLTicketHandlerESt14default_deleteIS1_EE6_M_ptrEv(ptr noundef nonnull align 8 dereferenceable(8) %0) #1 comdat align 2 {
  %2 = alloca ptr, align 8
  store ptr %0, ptr %2, align 8, !tbaa !199
  %3 = load ptr, ptr %2, align 8
  %4 = getelementptr inbounds nuw %"class.std::__uniq_ptr_impl.7", ptr %3, i32 0, i32 0
  %5 = call noundef nonnull align 8 dereferenceable(8) ptr @_ZSt3getILm0EJPN5folly20OpenSSLTicketHandlerESt14default_deleteIS1_EEERKNSt13tuple_elementIXT_ESt5tupleIJDpT0_EEE4typeERKS9_(ptr noundef nonnull align 8 dereferenceable(8) %4) #26
  %6 = load ptr, ptr %5, align 8, !tbaa !149
  ret ptr %6
}

; Function Attrs: mustprogress nounwind uwtable
define linkonce_odr noundef ptr @_ZNKSt10unique_ptrIN5folly20OpenSSLTicketHandlerESt14default_deleteIS1_EE3getEv(ptr noundef nonnull align 8 dereferenceable(8) %0) #1 comdat align 2 {
  %2 = alloca ptr, align 8
  store ptr %0, ptr %2, align 8, !tbaa !118
  %3 = load ptr, ptr %2, align 8
  %4 = getelementptr inbounds nuw %"class.std::unique_ptr.5", ptr %3, i32 0, i32 0
  %5 = call noundef ptr @_ZNKSt15__uniq_ptr_implIN5folly20OpenSSLTicketHandlerESt14default_deleteIS1_EE6_M_ptrEv(ptr noundef nonnull align 8 dereferenceable(8) %4) #26
  ret ptr %5
}

; Function Attrs: mustprogress uwtable
define internal noundef i32 @_ZN5folly12_GLOBAL__N_114getExDataIndexEv() #2 personality ptr @__gxx_personality_v0 {
  %1 = alloca ptr, align 8
  %2 = alloca i32, align 4
  %3 = load atomic i8, ptr @_ZGVZN5folly12_GLOBAL__N_114getExDataIndexEvE5index acquire, align 8
  %4 = icmp eq i8 %3, 0
  br i1 %4, label %5, label %11, !prof !764

5:                                                ; preds = %0
  %6 = call i32 @__cxa_guard_acquire(ptr @_ZGVZN5folly12_GLOBAL__N_114getExDataIndexEvE5index) #26
  %7 = icmp ne i32 %6, 0
  br i1 %7, label %8, label %11

8:                                                ; preds = %5
  %9 = invoke i32 @CRYPTO_get_ex_new_index(i32 noundef 1, i64 noundef 0, ptr noundef null, ptr noundef null, ptr noundef null, ptr noundef null)
          to label %10 unwind label %13

10:                                               ; preds = %8
  store i32 %9, ptr @_ZZN5folly12_GLOBAL__N_114getExDataIndexEvE5index, align 4, !tbaa !77
  call void @__cxa_guard_release(ptr @_ZGVZN5folly12_GLOBAL__N_114getExDataIndexEvE5index) #26
  br label %11

11:                                               ; preds = %10, %5, %0
  %12 = load i32, ptr @_ZZN5folly12_GLOBAL__N_114getExDataIndexEvE5index, align 4, !tbaa !77
  ret i32 %12

13:                                               ; preds = %8
  %14 = landingpad { ptr, i32 }
          cleanup
  %15 = extractvalue { ptr, i32 } %14, 0
  store ptr %15, ptr %1, align 8
  %16 = extractvalue { ptr, i32 } %14, 1
  store i32 %16, ptr %2, align 4
  call void @__cxa_guard_abort(ptr @_ZGVZN5folly12_GLOBAL__N_114getExDataIndexEvE5index) #26
  br label %17

17:                                               ; preds = %13
  %18 = load ptr, ptr %1, align 8
  %19 = load i32, ptr %2, align 4
  %20 = insertvalue { ptr, i32 } poison, ptr %18, 0
  %21 = insertvalue { ptr, i32 } %20, i32 %19, 1
  resume { ptr, i32 } %21
}

; Function Attrs: mustprogress nounwind uwtable
define linkonce_odr noundef ptr @_ZNK5folly10SSLContext16getTicketHandlerEv(ptr noundef nonnull align 8 dereferenceable(304) %0) #1 comdat align 2 {
  %2 = alloca ptr, align 8
  store ptr %0, ptr %2, align 8, !tbaa !7
  %3 = load ptr, ptr %2, align 8
  %4 = getelementptr inbounds nuw %"class.folly::SSLContext", ptr %3, i32 0, i32 12
  %5 = call noundef ptr @_ZNKSt10unique_ptrIN5folly20OpenSSLTicketHandlerESt14default_deleteIS1_EE3getEv(ptr noundef nonnull align 8 dereferenceable(8) %4) #26
  ret ptr %5
}

; Function Attrs: mustprogress nounwind uwtable
define linkonce_odr void @_ZN6google17LogMessageVoidifyanERSo(ptr noundef nonnull align 1 dereferenceable(1) %0, ptr noundef nonnull align 8 dereferenceable(8) %1) #1 comdat align 2 {
  %3 = alloca ptr, align 8
  %4 = alloca ptr, align 8
  store ptr %0, ptr %3, align 8, !tbaa !265
  store ptr %1, ptr %4, align 8, !tbaa !267
  ret void
}

; Function Attrs: mustprogress nounwind uwtable
define linkonce_odr void @_ZN6google17LogMessageVoidifyC2Ev(ptr noundef nonnull align 1 dereferenceable(1) %0) unnamed_addr #1 comdat align 2 {
  %2 = alloca ptr, align 8
  store ptr %0, ptr %2, align 8, !tbaa !265
  ret void
}

; Function Attrs: mustprogress uwtable
define noundef ptr @_ZN5folly10SSLContext13getFromSSLCtxEPK10ssl_ctx_st(ptr noundef %0) #2 align 2 {
  %2 = alloca ptr, align 8
  store ptr %0, ptr %2, align 8, !tbaa !130
  %3 = load ptr, ptr %2, align 8, !tbaa !130
  %4 = call noundef i32 @_ZN5folly12_GLOBAL__N_114getExDataIndexEv()
  %5 = call ptr @SSL_CTX_get_ex_data(ptr noundef %3, i32 noundef %4)
  ret ptr %5
}

; Function Attrs: mustprogress uwtable
define internal noundef i32 @_ZN5folly12_GLOBAL__N_120dispatchTicketCryptoEP6ssl_stPhS3_P17evp_cipher_ctx_stP11hmac_ctx_sti(ptr noundef %0, ptr noundef %1, ptr noundef %2, ptr noundef %3, ptr noundef %4, i32 noundef %5) #2 personality ptr @__gxx_personality_v0 {
  %7 = alloca ptr, align 8
  %8 = alloca ptr, align 8
  %9 = alloca ptr, align 8
  %10 = alloca ptr, align 8
  %11 = alloca ptr, align 8
  %12 = alloca i32, align 4
  %13 = alloca ptr, align 8
  %14 = alloca %"class.google::LogMessageVoidify", align 1
  %15 = alloca %"class.google::LogMessageFatal", align 8
  %16 = alloca i1, align 1
  %17 = alloca i1, align 1
  %18 = alloca ptr, align 8
  %19 = alloca i32, align 4
  %20 = alloca ptr, align 8
  %21 = alloca %"class.google::LogMessageFatal", align 8
  store ptr %0, ptr %7, align 8, !tbaa !135
  store ptr %1, ptr %8, align 8, !tbaa !91
  store ptr %2, ptr %9, align 8, !tbaa !91
  store ptr %3, ptr %10, align 8, !tbaa !792
  store ptr %4, ptr %11, align 8, !tbaa !794
  store i32 %5, ptr %12, align 4, !tbaa !77
  call void @llvm.lifetime.start.p0(i64 8, ptr %13) #26
  %22 = load ptr, ptr %7, align 8, !tbaa !135
  %23 = call ptr @SSL_get_SSL_CTX(ptr noundef %22)
  %24 = call noundef ptr @_ZN5folly10SSLContext13getFromSSLCtxEPK10ssl_ctx_st(ptr noundef %23)
  store ptr %24, ptr %13, align 8, !tbaa !7
  br label %25

25:                                               ; preds = %51, %6
  br i1 false, label %26, label %58

26:                                               ; preds = %25
  %27 = load ptr, ptr %13, align 8, !tbaa !7
  %28 = icmp ne ptr %27, null
  %29 = xor i1 %28, true
  %30 = zext i1 %29 to i64
  %31 = call i64 @llvm.expect.i64(i64 %30, i64 0)
  %32 = icmp ne i64 %31, 0
  call void @llvm.lifetime.start.p0(i64 1, ptr %14) #26
  store i1 false, ptr %16, align 1
  store i1 false, ptr %17, align 1
  br i1 %32, label %34, label %33

33:                                               ; preds = %26
  br label %39

34:                                               ; preds = %26
  call void @_ZN6google17LogMessageVoidifyC2Ev(ptr noundef nonnull align 1 dereferenceable(1) %14)
  call void @llvm.lifetime.start.p0(i64 16, ptr %15) #26
  store i1 true, ptr %16, align 1
  call void @_ZN6google15LogMessageFatalC1EPKci(ptr noundef nonnull align 8 dereferenceable(16) %15, ptr noundef @.str.3, i32 noundef 86)
  store i1 true, ptr %17, align 1
  %35 = invoke noundef nonnull align 8 dereferenceable(8) ptr @_ZN6google10LogMessage6streamEv(ptr noundef nonnull align 8 dereferenceable(16) %15)
          to label %36 unwind label %42

36:                                               ; preds = %34
  %37 = invoke noundef nonnull align 8 dereferenceable(8) ptr @_ZStlsISt11char_traitsIcEERSt13basic_ostreamIcT_ES5_PKc(ptr noundef nonnull align 8 dereferenceable(8) %35, ptr noundef @.str.84)
          to label %38 unwind label %42

38:                                               ; preds = %36
  call void @_ZN6google17LogMessageVoidifyanERSo(ptr noundef nonnull align 1 dereferenceable(1) %14, ptr noundef nonnull align 8 dereferenceable(8) %37)
  br label %39

39:                                               ; preds = %38, %33
  %40 = load i1, ptr %17, align 1
  br i1 %40, label %41, label %48

41:                                               ; preds = %39
  call void @_ZN6google15LogMessageFatalD1Ev(ptr noundef nonnull align 8 dereferenceable(16) %15) #29
  unreachable

42:                                               ; preds = %36, %34
  %43 = landingpad { ptr, i32 }
          cleanup
  %44 = extractvalue { ptr, i32 } %43, 0
  store ptr %44, ptr %18, align 8
  %45 = extractvalue { ptr, i32 } %43, 1
  store i32 %45, ptr %19, align 4
  %46 = load i1, ptr %17, align 1
  br i1 %46, label %52, label %54

47:                                               ; No predecessors!
  br label %48

48:                                               ; preds = %47, %39
  %49 = load i1, ptr %16, align 1
  br i1 %49, label %50, label %51

50:                                               ; preds = %48
  call void @llvm.lifetime.end.p0(i64 16, ptr %15) #26
  br label %51

51:                                               ; preds = %50, %48
  call void @llvm.lifetime.end.p0(i64 1, ptr %14) #26
  br label %25, !llvm.loop !796

52:                                               ; preds = %42
  call void @_ZN6google15LogMessageFatalD1Ev(ptr noundef nonnull align 8 dereferenceable(16) %15) #29
  unreachable

53:                                               ; No predecessors!
  br label %54

54:                                               ; preds = %53, %42
  %55 = load i1, ptr %16, align 1
  br i1 %55, label %56, label %57

56:                                               ; preds = %54
  call void @llvm.lifetime.end.p0(i64 16, ptr %15) #26
  br label %57

57:                                               ; preds = %56, %54
  call void @llvm.lifetime.end.p0(i64 1, ptr %14) #26
  br label %85

58:                                               ; preds = %25
  call void @llvm.lifetime.start.p0(i64 8, ptr %20) #26
  %59 = load ptr, ptr %13, align 8, !tbaa !7
  %60 = call noundef ptr @_ZNK5folly10SSLContext16getTicketHandlerEv(ptr noundef nonnull align 8 dereferenceable(304) %59)
  store ptr %60, ptr %20, align 8, !tbaa !149
  %61 = load ptr, ptr %20, align 8, !tbaa !149
  %62 = icmp ne ptr %61, null
  br i1 %62, label %73, label %63

63:                                               ; preds = %58
  call void @llvm.lifetime.start.p0(i64 16, ptr %21) #26
  call void @_ZN6google15LogMessageFatalC1EPKci(ptr noundef nonnull align 8 dereferenceable(16) %21, ptr noundef @.str.3, i32 noundef 90)
  %64 = invoke noundef nonnull align 8 dereferenceable(8) ptr @_ZN6google10LogMessage6streamEv(ptr noundef nonnull align 8 dereferenceable(16) %21)
          to label %65 unwind label %68

65:                                               ; preds = %63
  %66 = invoke noundef nonnull align 8 dereferenceable(8) ptr @_ZStlsISt11char_traitsIcEERSt13basic_ostreamIcT_ES5_PKc(ptr noundef nonnull align 8 dereferenceable(8) %64, ptr noundef @.str.85)
          to label %67 unwind label %68

67:                                               ; preds = %65
  call void @_ZN6google15LogMessageFatalD1Ev(ptr noundef nonnull align 8 dereferenceable(16) %21) #29
  unreachable

68:                                               ; preds = %65, %63
  %69 = landingpad { ptr, i32 }
          cleanup
  %70 = extractvalue { ptr, i32 } %69, 0
  store ptr %70, ptr %18, align 8
  %71 = extractvalue { ptr, i32 } %69, 1
  store i32 %71, ptr %19, align 4
  call void @_ZN6google15LogMessageFatalD1Ev(ptr noundef nonnull align 8 dereferenceable(16) %21) #29
  unreachable

72:                                               ; No predecessors!
  call void @llvm.lifetime.end.p0(i64 16, ptr %21) #26
  call void @llvm.lifetime.end.p0(i64 8, ptr %20) #26
  br label %85

73:                                               ; preds = %58
  %74 = load ptr, ptr %20, align 8, !tbaa !149
  %75 = load ptr, ptr %7, align 8, !tbaa !135
  %76 = load ptr, ptr %8, align 8, !tbaa !91
  %77 = load ptr, ptr %9, align 8, !tbaa !91
  %78 = load ptr, ptr %10, align 8, !tbaa !792
  %79 = load ptr, ptr %11, align 8, !tbaa !794
  %80 = load i32, ptr %12, align 4, !tbaa !77
  %81 = load ptr, ptr %74, align 8, !tbaa !14
  %82 = getelementptr inbounds ptr, ptr %81, i64 2
  %83 = load ptr, ptr %82, align 8
  %84 = call noundef i32 %83(ptr noundef nonnull align 8 dereferenceable(8) %74, ptr noundef %75, ptr noundef %76, ptr noundef %77, ptr noundef %78, ptr noundef %79, i32 noundef %80)
  call void @llvm.lifetime.end.p0(i64 8, ptr %20) #26
  call void @llvm.lifetime.end.p0(i64 8, ptr %13) #26
  ret i32 %84

85:                                               ; preds = %72, %57
  call void @llvm.lifetime.end.p0(i64 8, ptr %13) #26
  br label %86

86:                                               ; preds = %85
  %87 = load ptr, ptr %18, align 8
  %88 = load i32, ptr %19, align 4
  %89 = insertvalue { ptr, i32 } poison, ptr %87, 0
  %90 = insertvalue { ptr, i32 } %89, i32 %88, 1
  resume { ptr, i32 } %90
}