; Function Attrs: mustprogress uwtable
define internal noundef i32 @_ZN5folly12_GLOBAL__N_120dispatchTicketCryptoEP6ssl_stPhS3_P17evp_cipher_ctx_stP11hmac_ctx_sti(ptr noundef %0, ptr noundef %1, ptr noundef %2, ptr noundef %3, ptr noundef %4, i32 noundef %5) #2 personality ptr @__gxx_personality_v0 {
  %7 = alloca %"class.google::LogMessageFatal", align 8
  %8 = tail call ptr @SSL_get_SSL_CTX(ptr noundef %0)
  %9 = load atomic i8, ptr @_ZGVZN5folly12_GLOBAL__N_114getExDataIndexEvE5index acquire, align 8
  %10 = icmp eq i8 %9, 0
  br i1 %10, label %11, label %_ZN5folly10SSLContext13getFromSSLCtxEPK10ssl_ctx_st.exit, !prof !177

11:                                               ; preds = %6
  %12 = tail call i32 @__cxa_guard_acquire(ptr nonnull @_ZGVZN5folly12_GLOBAL__N_114getExDataIndexEvE5index) #29
  %.not.i.i = icmp eq i32 %12, 0
  br i1 %.not.i.i, label %_ZN5folly10SSLContext13getFromSSLCtxEPK10ssl_ctx_st.exit, label %13

13:                                               ; preds = %11
  %14 = invoke i32 @CRYPTO_get_ex_new_index(i32 noundef 1, i64 noundef 0, ptr noundef null, ptr noundef null, ptr noundef null, ptr noundef null)
          to label %15 unwind label %16

15:                                               ; preds = %13
  store i32 %14, ptr @_ZZN5folly12_GLOBAL__N_114getExDataIndexEvE5index, align 4, !tbaa !74
  tail call void @__cxa_guard_release(ptr nonnull @_ZGVZN5folly12_GLOBAL__N_114getExDataIndexEvE5index) #29
  br label %_ZN5folly10SSLContext13getFromSSLCtxEPK10ssl_ctx_st.exit

16:                                               ; preds = %13
  %17 = landingpad { ptr, i32 }
          cleanup
  tail call void @__cxa_guard_abort(ptr nonnull @_ZGVZN5folly12_GLOBAL__N_114getExDataIndexEvE5index) #29
  resume { ptr, i32 } %17

_ZN5folly10SSLContext13getFromSSLCtxEPK10ssl_ctx_st.exit: ; preds = %6, %11, %15
  %18 = load i32, ptr @_ZZN5folly12_GLOBAL__N_114getExDataIndexEvE5index, align 4, !tbaa !74
  %19 = tail call noundef ptr @SSL_CTX_get_ex_data(ptr noundef %8, i32 noundef %18)
  %20 = getelementptr inbounds nuw i8, ptr %19, i64 152
  %21 = load ptr, ptr %20, align 8, !tbaa !176
  %.not = icmp eq ptr %21, null
  br i1 %.not, label %22, label %29

22:                                               ; preds = %_ZN5folly10SSLContext13getFromSSLCtxEPK10ssl_ctx_st.exit
  call void @llvm.lifetime.start.p0(i64 16, ptr nonnull %7) #29
  call void @_ZN6google15LogMessageFatalC1EPKci(ptr noundef nonnull align 8 dereferenceable(16) %7, ptr noundef nonnull @.str.3, i32 noundef 90)
  %23 = invoke noundef nonnull align 8 dereferenceable(8) ptr @_ZN6google10LogMessage6streamEv(ptr noundef nonnull align 8 dereferenceable(16) %7)
          to label %24 unwind label %27

24:                                               ; preds = %22
  %25 = invoke noundef nonnull align 8 dereferenceable(8) ptr @_ZStlsISt11char_traitsIcEERSt13basic_ostreamIcT_ES5_PKc(ptr noundef nonnull align 8 dereferenceable(8) %23, ptr noundef nonnull @.str.85)
          to label %26 unwind label %27

26:                                               ; preds = %24
  call void @_ZN6google15LogMessageFatalD1Ev(ptr noundef nonnull align 8 dereferenceable(16) %7) #33
  unreachable

27:                                               ; preds = %24, %22
  %28 = landingpad { ptr, i32 }
          cleanup
  call void @_ZN6google15LogMessageFatalD1Ev(ptr noundef nonnull align 8 dereferenceable(16) %7) #33
  unreachable

29:                                               ; preds = %_ZN5folly10SSLContext13getFromSSLCtxEPK10ssl_ctx_st.exit
  %30 = load ptr, ptr %21, align 8, !tbaa !7
  %31 = getelementptr inbounds nuw i8, ptr %30, i64 16
  %32 = load ptr, ptr %31, align 8
  %33 = tail call noundef i32 %32(ptr noundef nonnull align 8 dereferenceable(8) %21, ptr noundef %0, ptr noundef %1, ptr noundef %2, ptr noundef %3, ptr noundef %4, i32 noundef %5)
  ret i32 %33
}